target datalayout = "e-m:e-p270:32:32-p271:32:32-p272:64:64-i64:64-i128:128-f80:128-n8:16:32:64-S128"
target triple = "x86_64-pc-linux-gnu"

; Function Attrs: nounwind uwtable
define i64 @stbds_hash_string(ptr noundef %0, i64 noundef %1) #0 {
  %3 = alloca ptr, align 8
  %4 = alloca i64, align 8
  %5 = alloca i64, align 8
  store ptr %0, ptr %3, align 8, !tbaa !39
  store i64 %1, ptr %4, align 8, !tbaa !7
  call void @llvm.lifetime.start.p0(i64 8, ptr %5) #7
  %6 = load i64, ptr %4, align 8, !tbaa !7
  store i64 %6, ptr %5, align 8, !tbaa !7
  br label %7

7:                                                ; preds = %11, %2
  %8 = load ptr, ptr %3, align 8, !tbaa !39
  %9 = load i8, ptr %8, align 1, !tbaa !30
  %10 = icmp ne i8 %9, 0
  br i1 %10, label %11, label %22

11:                                               ; preds = %7
  %12 = load i64, ptr %5, align 8, !tbaa !7
  %13 = shl i64 %12, 9
  %14 = load i64, ptr %5, align 8, !tbaa !7
  %15 = lshr i64 %14, 55
  %16 = or i64 %13, %15
  %17 = load ptr, ptr %3, align 8, !tbaa !39
  %18 = getelementptr inbounds nuw i8, ptr %17, i32 1
  store ptr %18, ptr %3, align 8, !tbaa !39
  %19 = load i8, ptr %17, align 1, !tbaa !30
  %20 = zext i8 %19 to i64
  %21 = add i64 %16, %20
  store i64 %21, ptr %5, align 8, !tbaa !7
  br label %7, !llvm.loop !40

22:                                               ; preds = %7
  %23 = load i64, ptr %4, align 8, !tbaa !7
  %24 = load i64, ptr %5, align 8, !tbaa !7
  %25 = xor i64 %24, %23
  store i64 %25, ptr %5, align 8, !tbaa !7
  %26 = load i64, ptr %5, align 8, !tbaa !7
  %27 = xor i64 %26, -1
  %28 = load i64, ptr %5, align 8, !tbaa !7
  %29 = shl i64 %28, 18
  %30 = add i64 %27, %29
  store i64 %30, ptr %5, align 8, !tbaa !7
  %31 = load i64, ptr %5, align 8, !tbaa !7
  %32 = load i64, ptr %5, align 8, !tbaa !7
  %33 = lshr i64 %32, 31
  %34 = load i64, ptr %5, align 8, !tbaa !7
  %35 = shl i64 %34, 33
  %36 = or i64 %33, %35
  %37 = xor i64 %31, %36
  %38 = load i64, ptr %5, align 8, !tbaa !7
  %39 = xor i64 %38, %37
  store i64 %39, ptr %5, align 8, !tbaa !7
  %40 = load i64, ptr %5, align 8, !tbaa !7
  %41 = mul i64 %40, 21
  store i64 %41, ptr %5, align 8, !tbaa !7
  %42 = load i64, ptr %5, align 8, !tbaa !7
  %43 = load i64, ptr %5, align 8, !tbaa !7
  %44 = lshr i64 %43, 11
  %45 = load i64, ptr %5, align 8, !tbaa !7
  %46 = shl i64 %45, 53
  %47 = or i64 %44, %46
  %48 = xor i64 %42, %47
  %49 = load i64, ptr %5, align 8, !tbaa !7
  %50 = xor i64 %49, %48
  store i64 %50, ptr %5, align 8, !tbaa !7
  %51 = load i64, ptr %5, align 8, !tbaa !7
  %52 = shl i64 %51, 6
  %53 = load i64, ptr %5, align 8, !tbaa !7
  %54 = add i64 %53, %52
  store i64 %54, ptr %5, align 8, !tbaa !7
  %55 = load i64, ptr %5, align 8, !tbaa !7
  %56 = lshr i64 %55, 22
  %57 = load i64, ptr %5, align 8, !tbaa !7
  %58 = shl i64 %57, 42
  %59 = or i64 %56, %58
  %60 = load i64, ptr %5, align 8, !tbaa !7
  %61 = xor i64 %60, %59
  store i64 %61, ptr %5, align 8, !tbaa !7
  %62 = load i64, ptr %5, align 8, !tbaa !7
  %63 = load i64, ptr %4, align 8, !tbaa !7
  %64 = add i64 %62, %63
  call void @llvm.lifetime.end.p0(i64 8, ptr %5) #7
  ret i64 %64
}