; Function Attrs: nofree norecurse nosync nounwind memory(argmem: read) uwtable
define i64 @stbds_hash_string(ptr noundef readonly captures(none) %0, i64 noundef %1) local_unnamed_addr #10 {
  %3 = load i8, ptr %0, align 1, !tbaa !27
  %.not26 = icmp eq i8 %3, 0
  br i1 %.not26, label %._crit_edge, label %.lr.ph

.lr.ph:                                           ; preds = %2, %.lr.ph
  %4 = phi i8 [ %9, %.lr.ph ], [ %3, %2 ]
  %.028 = phi i64 [ %8, %.lr.ph ], [ %1, %2 ]
  %.02427 = phi ptr [ %6, %.lr.ph ], [ %0, %2 ]
  %5 = tail call i64 @llvm.fshl.i64(i64 %.028, i64 %.028, i64 9)
  %6 = getelementptr inbounds nuw i8, ptr %.02427, i64 1
  %7 = zext i8 %4 to i64
  %8 = add i64 %5, %7
  %9 = load i8, ptr %6, align 1, !tbaa !27
  %.not = icmp eq i8 %9, 0
  br i1 %.not, label %._crit_edge, label %.lr.ph, !llvm.loop !34

._crit_edge:                                      ; preds = %.lr.ph, %2
  %.0.lcssa = phi i64 [ %1, %2 ], [ %8, %.lr.ph ]
  %10 = xor i64 %.0.lcssa, %1
  %11 = xor i64 %10, -1
  %12 = shl i64 %10, 18
  %13 = add i64 %12, %11
  %14 = tail call i64 @llvm.fshl.i64(i64 %13, i64 %13, i64 33)
  %15 = mul i64 %14, 21
  %16 = lshr i64 %15, 11
  %17 = mul i64 %14, 189151184349560832
  %18 = or disjoint i64 %16, %17
  %19 = mul i64 %18, 65
  %20 = lshr i64 %19, 22
  %21 = mul i64 %18, 285873023221760
  %22 = or disjoint i64 %20, %21
  %23 = xor i64 %22, %19
  %24 = add i64 %23, %1
  ret i64 %24
}